; ModuleID = 'source-C-CXX/3/1638.c'
source_filename = "source-C-CXX/3/1638.c"
target datalayout = "e-m:e-p270:32:32-p271:32:32-p272:64:64-i64:64-f80:128-n8:16:32:64-S128"
target triple = "x86_64-pc-linux-gnu"

%struct._IO_FILE = type { i32, i8*, i8*, i8*, i8*, i8*, i8*, i8*, i8*, i8*, i8*, i8*, %struct._IO_marker*, %struct._IO_FILE*, i32, i32, i64, i16, i8, [1 x i8], i8*, i64, %struct._IO_codecvt*, %struct._IO_wide_data*, %struct._IO_FILE*, i8*, i64, i32, [20 x i8] }
%struct._IO_marker = type opaque
%struct._IO_codecvt = type opaque
%struct._IO_wide_data = type opaque

@.str = private unnamed_addr constant [5 x i8] c"%d%d\00", align 1
@.str.1 = private unnamed_addr constant [3 x i8] c"%d\00", align 1
@.str.2 = private unnamed_addr constant [4 x i8] c"%d\0A\00", align 1
@stdin = external local_unnamed_addr global %struct._IO_FILE*, align 8

; Function Attrs: nofree nounwind sspstrong uwtable
define dso_local i32 @main() local_unnamed_addr #0 {
  %1 = alloca i32, align 4
  %2 = alloca i32, align 4
  %3 = alloca [110 x [110 x i32]], align 16
  %4 = bitcast i32* %1 to i8*
  call void @llvm.lifetime.start.p0i8(i64 4, i8* nonnull %4) #4
  %5 = bitcast i32* %2 to i8*
  call void @llvm.lifetime.start.p0i8(i64 4, i8* nonnull %5) #4
  %6 = bitcast [110 x [110 x i32]]* %3 to i8*
  call void @llvm.lifetime.start.p0i8(i64 48400, i8* nonnull %6) #4
  call void @llvm.memset.p0i8.i64(i8* noundef nonnull align 16 dereferenceable(48400) %6, i8 0, i64 48400, i1 false)
  %7 = call i32 (i8*, ...) @__isoc99_scanf(i8* getelementptr inbounds ([5 x i8], [5 x i8]* @.str, i64 0, i64 0), i32* nonnull %1, i32* nonnull %2)
  %8 = load %struct._IO_FILE*, %struct._IO_FILE** @stdin, align 8, !tbaa !5
  %9 = call i32 @getc(%struct._IO_FILE* %8) #4
  %10 = load i32, i32* %1, align 4, !tbaa !9
  %11 = icmp sgt i32 %10, 0
  %12 = load i32, i32* %2, align 4, !tbaa !9
  %13 = icmp sgt i32 %12, 0
  %14 = select i1 %11, i1 %13, i1 false
  br i1 %14, label %15, label %20

15:                                               ; preds = %0, %36
  %16 = phi i32 [ %37, %36 ], [ %10, %0 ]
  %17 = phi i32 [ %38, %36 ], [ %12, %0 ]
  %18 = phi i64 [ %39, %36 ], [ 0, %0 ]
  %19 = icmp sgt i32 %17, 0
  br i1 %19, label %26, label %36

20:                                               ; preds = %36, %0
  %21 = phi i32 [ %10, %0 ], [ %37, %36 ]
  %22 = phi i32 [ %12, %0 ], [ %38, %36 ]
  %23 = add i32 %22, -2
  %24 = add i32 %23, %21
  %25 = icmp slt i32 %24, 0
  br i1 %25, label %74, label %42

26:                                               ; preds = %15, %26
  %27 = phi i64 [ %30, %26 ], [ 0, %15 ]
  %28 = getelementptr inbounds [110 x [110 x i32]], [110 x [110 x i32]]* %3, i64 0, i64 %18, i64 %27
  %29 = call i32 (i8*, ...) @__isoc99_scanf(i8* getelementptr inbounds ([3 x i8], [3 x i8]* @.str.1, i64 0, i64 0), i32* nonnull %28)
  %30 = add nuw nsw i64 %27, 1
  %31 = load i32, i32* %2, align 4, !tbaa !9
  %32 = sext i32 %31 to i64
  %33 = icmp slt i64 %30, %32
  br i1 %33, label %26, label %34, !llvm.loop !11

34:                                               ; preds = %26
  %35 = load i32, i32* %1, align 4, !tbaa !9
  br label %36

36:                                               ; preds = %34, %15
  %37 = phi i32 [ %35, %34 ], [ %16, %15 ]
  %38 = phi i32 [ %31, %34 ], [ %17, %15 ]
  %39 = add nuw nsw i64 %18, 1
  %40 = sext i32 %37 to i64
  %41 = icmp slt i64 %39, %40
  br i1 %41, label %15, label %20, !llvm.loop !13

42:                                               ; preds = %20, %65
  %43 = phi i32 [ %68, %65 ], [ %21, %20 ]
  %44 = phi i64 [ %66, %65 ], [ 0, %20 ]
  %45 = phi i64 [ %73, %65 ], [ 1, %20 ]
  br label %46

46:                                               ; preds = %63, %42
  %47 = phi i32 [ %43, %42 ], [ %64, %63 ]
  %48 = phi i64 [ 0, %42 ], [ %61, %63 ]
  %49 = sext i32 %47 to i64
  %50 = icmp slt i64 %48, %49
  br i1 %50, label %51, label %60

51:                                               ; preds = %46
  %52 = sub nsw i64 %44, %48
  %53 = load i32, i32* %2, align 4, !tbaa !9
  %54 = sext i32 %53 to i64
  %55 = icmp slt i64 %52, %54
  br i1 %55, label %56, label %60

56:                                               ; preds = %51
  %57 = getelementptr inbounds [110 x [110 x i32]], [110 x [110 x i32]]* %3, i64 0, i64 %48, i64 %52
  %58 = load i32, i32* %57, align 4, !tbaa !9
  %59 = call i32 (i8*, ...) @printf(i8* nonnull dereferenceable(1) getelementptr inbounds ([4 x i8], [4 x i8]* @.str.2, i64 0, i64 0), i32 %58)
  br label %60

60:                                               ; preds = %46, %51, %56
  %61 = add nuw nsw i64 %48, 1
  %62 = icmp eq i64 %61, %45
  br i1 %62, label %65, label %63, !llvm.loop !15

63:                                               ; preds = %60
  %64 = load i32, i32* %1, align 4, !tbaa !9
  br label %46

65:                                               ; preds = %60
  %66 = add nuw nsw i64 %44, 1
  %67 = load i32, i32* %2, align 4, !tbaa !9
  %68 = load i32, i32* %1, align 4, !tbaa !9
  %69 = add i32 %67, -2
  %70 = add i32 %69, %68
  %71 = sext i32 %70 to i64
  %72 = icmp slt i64 %44, %71
  %73 = add nuw nsw i64 %45, 1
  br i1 %72, label %42, label %74, !llvm.loop !16

74:                                               ; preds = %65, %20
  call void @llvm.lifetime.end.p0i8(i64 48400, i8* nonnull %6) #4
  call void @llvm.lifetime.end.p0i8(i64 4, i8* nonnull %5) #4
  call void @llvm.lifetime.end.p0i8(i64 4, i8* nonnull %4) #4
  ret i32 0
}

; Function Attrs: argmemonly mustprogress nofree nosync nounwind willreturn
declare void @llvm.lifetime.start.p0i8(i64 immarg, i8* nocapture) #1

; Function Attrs: argmemonly mustprogress nofree nounwind willreturn writeonly
declare void @llvm.memset.p0i8.i64(i8* nocapture writeonly, i8, i64, i1 immarg) #2

; Function Attrs: nofree nounwind
declare noundef i32 @__isoc99_scanf(i8* nocapture noundef readonly, ...) local_unnamed_addr #3

; Function Attrs: nofree nounwind
declare noundef i32 @printf(i8* nocapture noundef readonly, ...) local_unnamed_addr #3

; Function Attrs: argmemonly mustprogress nofree nosync nounwind willreturn
declare void @llvm.lifetime.end.p0i8(i64 immarg, i8* nocapture) #1

; Function Attrs: nofree nounwind
declare noundef i32 @getc(%struct._IO_FILE* nocapture noundef) local_unnamed_addr #3


!llvm.module.flags = !{!0, !1, !2, !3}
!llvm.ident = !{!4}

!0 = !{i32 1, !"wchar_size", i32 4}
!1 = !{i32 7, !"PIC Level", i32 2}
!2 = !{i32 7, !"PIE Level", i32 2}
!3 = !{i32 7, !"uwtable", i32 1}
!4 = !{!"clang version 13.0.0"}
!5 = !{!6, !6, i64 0}
!6 = !{!"any pointer", !7, i64 0}
!7 = !{!"omnipotent char", !8, i64 0}
!8 = !{!"Simple C/C++ TBAA"}
!9 = !{!10, !10, i64 0}
!10 = !{!"int", !7, i64 0}
!11 = distinct !{!11, !12}
!12 = !{!"llvm.loop.mustprogress"}
!13 = distinct !{!13, !12, !14}
!14 = !{!"llvm.loop.unswitch.partial.disable"}
!15 = distinct !{!15, !12}
!16 = distinct !{!16, !12}
